; ModuleID = '36/422.c'
source_filename = "36/422.c"
target datalayout = "e-m:e-p270:32:32-p271:32:32-p272:64:64-i64:64-f80:128-n8:16:32:64-S128"
target triple = "x86_64-pc-linux-gnu"

@.str = private unnamed_addr constant [5 x i8] c"%s%s\00", align 1
@.str.1 = private unnamed_addr constant [3 x i8] c"NO\00", align 1
@.str.2 = private unnamed_addr constant [4 x i8] c"YES\00", align 1

; Function Attrs: noinline nounwind uwtable
define dso_local void @main() #0 {
  %1 = alloca i32, align 4
  %2 = alloca i32, align 4
  %3 = alloca i32, align 4
  %4 = alloca i32, align 4
  %5 = alloca i8, align 1
  %6 = alloca [10 x i8], align 1
  %7 = alloca [10 x i8], align 1
  %8 = alloca i8*, align 8
  %9 = alloca i8*, align 8
  %10 = getelementptr inbounds [10 x i8], [10 x i8]* %6, i64 0, i64 0
  store i8* %10, i8** %8, align 8
  %11 = getelementptr inbounds [10 x i8], [10 x i8]* %7, i64 0, i64 0
  store i8* %11, i8** %9, align 8
  %12 = getelementptr inbounds [10 x i8], [10 x i8]* %6, i64 0, i64 0
  %13 = getelementptr inbounds [10 x i8], [10 x i8]* %7, i64 0, i64 0
  %14 = call i32 (i8*, ...) @__isoc99_scanf(i8* getelementptr inbounds ([5 x i8], [5 x i8]* @.str, i64 0, i64 0), i8* %12, i8* %13)
  %15 = getelementptr inbounds [10 x i8], [10 x i8]* %6, i64 0, i64 0
  %16 = call i64 @strlen(i8* %15) #3
  %17 = trunc i64 %16 to i32
  store i32 %17, i32* %1, align 4
  %18 = getelementptr inbounds [10 x i8], [10 x i8]* %7, i64 0, i64 0
  %19 = call i64 @strlen(i8* %18) #3
  %20 = trunc i64 %19 to i32
  store i32 %20, i32* %2, align 4
  %21 = load i32, i32* %1, align 4
  %22 = load i32, i32* %2, align 4
  %23 = icmp eq i32 %21, %22
  br i1 %23, label %24, label %92

24:                                               ; preds = %0
  store i32 0, i32* %3, align 4
  br label %25

25:                                               ; preds = %82, %24
  %26 = load i32, i32* %3, align 4
  %27 = load i32, i32* %1, align 4
  %28 = sub nsw i32 %27, 1
  %29 = icmp sle i32 %26, %28
  br i1 %29, label %30, label %85

30:                                               ; preds = %25
  %31 = load i32, i32* %3, align 4
  store i32 %31, i32* %4, align 4
  br label %32

32:                                               ; preds = %72, %30
  %33 = load i32, i32* %4, align 4
  %34 = load i32, i32* %1, align 4
  %35 = sub nsw i32 %34, 1
  %36 = icmp sle i32 %33, %35
  br i1 %36, label %37, label %75

37:                                               ; preds = %32
  %38 = load i8*, i8** %8, align 8
  %39 = load i32, i32* %3, align 4
  %40 = sext i32 %39 to i64
  %41 = getelementptr inbounds i8, i8* %38, i64 %40
  %42 = load i8, i8* %41, align 1
  %43 = sext i8 %42 to i32
  %44 = load i8*, i8** %9, align 8
  %45 = load i32, i32* %4, align 4
  %46 = sext i32 %45 to i64
  %47 = getelementptr inbounds i8, i8* %44, i64 %46
  %48 = load i8, i8* %47, align 1
  %49 = sext i8 %48 to i32
  %50 = icmp eq i32 %43, %49
  br i1 %50, label %51, label %71

51:                                               ; preds = %37
  %52 = load i8*, i8** %9, align 8
  %53 = load i32, i32* %3, align 4
  %54 = sext i32 %53 to i64
  %55 = getelementptr inbounds i8, i8* %52, i64 %54
  %56 = load i8, i8* %55, align 1
  store i8 %56, i8* %5, align 1
  %57 = load i8*, i8** %9, align 8
  %58 = load i32, i32* %4, align 4
  %59 = sext i32 %58 to i64
  %60 = getelementptr inbounds i8, i8* %57, i64 %59
  %61 = load i8, i8* %60, align 1
  %62 = load i8*, i8** %9, align 8
  %63 = load i32, i32* %3, align 4
  %64 = sext i32 %63 to i64
  %65 = getelementptr inbounds i8, i8* %62, i64 %64
  store i8 %61, i8* %65, align 1
  %66 = load i8, i8* %5, align 1
  %67 = load i8*, i8** %9, align 8
  %68 = load i32, i32* %4, align 4
  %69 = sext i32 %68 to i64
  %70 = getelementptr inbounds i8, i8* %67, i64 %69
  store i8 %66, i8* %70, align 1
  br label %75

71:                                               ; preds = %37
  br label %72

72:                                               ; preds = %71
  %73 = load i32, i32* %4, align 4
  %74 = add nsw i32 %73, 1
  store i32 %74, i32* %4, align 4
  br label %32

75:                                               ; preds = %51, %32
  %76 = load i32, i32* %4, align 4
  %77 = load i32, i32* %1, align 4
  %78 = icmp eq i32 %76, %77
  br i1 %78, label %79, label %81

79:                                               ; preds = %75
  %80 = call i32 (i8*, ...) @printf(i8* getelementptr inbounds ([3 x i8], [3 x i8]* @.str.1, i64 0, i64 0))
  br label %85

81:                                               ; preds = %75
  br label %82

82:                                               ; preds = %81
  %83 = load i32, i32* %3, align 4
  %84 = add nsw i32 %83, 1
  store i32 %84, i32* %3, align 4
  br label %25

85:                                               ; preds = %79, %25
  %86 = load i32, i32* %3, align 4
  %87 = load i32, i32* %1, align 4
  %88 = icmp eq i32 %86, %87
  br i1 %88, label %89, label %91

89:                                               ; preds = %85
  %90 = call i32 (i8*, ...) @printf(i8* getelementptr inbounds ([4 x i8], [4 x i8]* @.str.2, i64 0, i64 0))
  br label %91

91:                                               ; preds = %89, %85
  br label %94

92:                                               ; preds = %0
  %93 = call i32 (i8*, ...) @printf(i8* getelementptr inbounds ([3 x i8], [3 x i8]* @.str.1, i64 0, i64 0))
  br label %94

94:                                               ; preds = %92, %91
  ret void
}

declare dso_local i32 @__isoc99_scanf(i8*, ...) #1

; Function Attrs: nounwind readonly
declare dso_local i64 @strlen(i8*) #2

declare dso_local i32 @printf(i8*, ...) #1


!llvm.module.flags = !{!0}
!llvm.ident = !{!1}

!0 = !{i32 1, !"wchar_size", i32 4}
!1 = !{!"clang version 10.0.0-4ubuntu1 "}
